; ModuleID = '4/1774.c'
source_filename = "4/1774.c"
target datalayout = "e-m:e-p270:32:32-p271:32:32-p272:64:64-i64:64-f80:128-n8:16:32:64-S128"
target triple = "x86_64-pc-linux-gnu"

@.str = private unnamed_addr constant [6 x i8] c"%d %d\00", align 1
@r = common dso_local global i32 0, align 4
@c = common dso_local global i32 0, align 4
@n = common dso_local global i32 0, align 4
@m = common dso_local global i32 0, align 4
@p = common dso_local global i32* null, align 8
@i = common dso_local global i32 0, align 4
@.str.1 = private unnamed_addr constant [3 x i8] c"%d\00", align 1
@.str.2 = private unnamed_addr constant [4 x i8] c"%d\0A\00", align 1
@j = common dso_local global i32 0, align 4
@k = common dso_local global i32 0, align 4

; Function Attrs: noinline nounwind uwtable
define dso_local void @main() #0 {
  %1 = call i32 (i8*, ...) @__isoc99_scanf(i8* getelementptr inbounds ([6 x i8], [6 x i8]* @.str, i64 0, i64 0), i32* @r, i32* @c)
  %2 = load i32, i32* @r, align 4
  %3 = load i32, i32* @c, align 4
  %4 = mul nsw i32 %2, %3
  store i32 %4, i32* @n, align 4
  %5 = load i32, i32* @r, align 4
  %6 = load i32, i32* @c, align 4
  %7 = add nsw i32 %5, %6
  %8 = sub nsw i32 %7, 2
  store i32 %8, i32* @m, align 4
  %9 = load i32, i32* @n, align 4
  %10 = sext i32 %9 to i64
  %11 = mul i64 %10, 4
  %12 = call noalias i8* @malloc(i64 %11) #3
  %13 = bitcast i8* %12 to i32*
  store i32* %13, i32** @p, align 8
  store i32 0, i32* @i, align 4
  br label %14

14:                                               ; preds = %24, %0
  %15 = load i32, i32* @i, align 4
  %16 = load i32, i32* @n, align 4
  %17 = icmp slt i32 %15, %16
  br i1 %17, label %18, label %27

18:                                               ; preds = %14
  %19 = load i32*, i32** @p, align 8
  %20 = load i32, i32* @i, align 4
  %21 = sext i32 %20 to i64
  %22 = getelementptr inbounds i32, i32* %19, i64 %21
  %23 = call i32 (i8*, ...) @__isoc99_scanf(i8* getelementptr inbounds ([3 x i8], [3 x i8]* @.str.1, i64 0, i64 0), i32* %22)
  br label %24

24:                                               ; preds = %18
  %25 = load i32, i32* @i, align 4
  %26 = add nsw i32 %25, 1
  store i32 %26, i32* @i, align 4
  br label %14

27:                                               ; preds = %14
  store i32 0, i32* @i, align 4
  br label %28

28:                                               ; preds = %34, %27
  %29 = load i32, i32* @i, align 4
  %30 = load i32, i32* @c, align 4
  %31 = icmp slt i32 %29, %30
  br i1 %31, label %32, label %37

32:                                               ; preds = %28
  %33 = load i32, i32* @i, align 4
  call void @x(i32 %33)
  br label %34

34:                                               ; preds = %32
  %35 = load i32, i32* @i, align 4
  %36 = add nsw i32 %35, 1
  store i32 %36, i32* @i, align 4
  br label %28

37:                                               ; preds = %28
  %38 = load i32, i32* @c, align 4
  store i32 %38, i32* @i, align 4
  br label %39

39:                                               ; preds = %45, %37
  %40 = load i32, i32* @i, align 4
  %41 = load i32, i32* @m, align 4
  %42 = icmp sle i32 %40, %41
  br i1 %42, label %43, label %48

43:                                               ; preds = %39
  %44 = load i32, i32* @i, align 4
  call void @y(i32 %44)
  br label %45

45:                                               ; preds = %43
  %46 = load i32, i32* @i, align 4
  %47 = add nsw i32 %46, 1
  store i32 %47, i32* @i, align 4
  br label %39

48:                                               ; preds = %39
  ret void
}

declare dso_local i32 @__isoc99_scanf(i8*, ...) #1

; Function Attrs: nounwind
declare dso_local noalias i8* @malloc(i64) #2

; Function Attrs: noinline nounwind uwtable
define dso_local void @x(i32 %0) #0 {
  %2 = alloca i32, align 4
  %3 = alloca i32, align 4
  store i32 %0, i32* %2, align 4
  %4 = load i32, i32* %2, align 4
  store i32 %4, i32* %3, align 4
  br label %5

5:                                                ; preds = %30, %1
  %6 = load i32, i32* %3, align 4
  %7 = icmp sge i32 %6, 0
  br i1 %7, label %8, label %14

8:                                                ; preds = %5
  %9 = load i32, i32* %2, align 4
  %10 = load i32, i32* %3, align 4
  %11 = sub nsw i32 %9, %10
  %12 = load i32, i32* @r, align 4
  %13 = icmp slt i32 %11, %12
  br label %14

14:                                               ; preds = %8, %5
  %15 = phi i1 [ false, %5 ], [ %13, %8 ]
  br i1 %15, label %16, label %33

16:                                               ; preds = %14
  %17 = load i32*, i32** @p, align 8
  %18 = load i32, i32* %2, align 4
  %19 = load i32, i32* %3, align 4
  %20 = sub nsw i32 %18, %19
  %21 = load i32, i32* @c, align 4
  %22 = mul nsw i32 %20, %21
  %23 = sext i32 %22 to i64
  %24 = getelementptr inbounds i32, i32* %17, i64 %23
  %25 = load i32, i32* %3, align 4
  %26 = sext i32 %25 to i64
  %27 = getelementptr inbounds i32, i32* %24, i64 %26
  %28 = load i32, i32* %27, align 4
  %29 = call i32 (i8*, ...) @printf(i8* getelementptr inbounds ([4 x i8], [4 x i8]* @.str.2, i64 0, i64 0), i32 %28)
  br label %30

30:                                               ; preds = %16
  %31 = load i32, i32* %3, align 4
  %32 = add nsw i32 %31, -1
  store i32 %32, i32* %3, align 4
  br label %5

33:                                               ; preds = %14
  ret void
}

; Function Attrs: noinline nounwind uwtable
define dso_local void @y(i32 %0) #0 {
  %2 = alloca i32, align 4
  %3 = alloca i32, align 4
  store i32 %0, i32* %2, align 4
  %4 = load i32, i32* @c, align 4
  %5 = sub nsw i32 %4, 1
  store i32 %5, i32* %3, align 4
  br label %6

6:                                                ; preds = %31, %1
  %7 = load i32, i32* %3, align 4
  %8 = icmp sge i32 %7, 0
  br i1 %8, label %9, label %15

9:                                                ; preds = %6
  %10 = load i32, i32* %2, align 4
  %11 = load i32, i32* %3, align 4
  %12 = sub nsw i32 %10, %11
  %13 = load i32, i32* @r, align 4
  %14 = icmp slt i32 %12, %13
  br label %15

15:                                               ; preds = %9, %6
  %16 = phi i1 [ false, %6 ], [ %14, %9 ]
  br i1 %16, label %17, label %34

17:                                               ; preds = %15
  %18 = load i32*, i32** @p, align 8
  %19 = load i32, i32* %2, align 4
  %20 = load i32, i32* %3, align 4
  %21 = sub nsw i32 %19, %20
  %22 = load i32, i32* @c, align 4
  %23 = mul nsw i32 %21, %22
  %24 = sext i32 %23 to i64
  %25 = getelementptr inbounds i32, i32* %18, i64 %24
  %26 = load i32, i32* %3, align 4
  %27 = sext i32 %26 to i64
  %28 = getelementptr inbounds i32, i32* %25, i64 %27
  %29 = load i32, i32* %28, align 4
  %30 = call i32 (i8*, ...) @printf(i8* getelementptr inbounds ([4 x i8], [4 x i8]* @.str.2, i64 0, i64 0), i32 %29)
  br label %31

31:                                               ; preds = %17
  %32 = load i32, i32* %3, align 4
  %33 = add nsw i32 %32, -1
  store i32 %33, i32* %3, align 4
  br label %6

34:                                               ; preds = %15
  ret void
}

declare dso_local i32 @printf(i8*, ...) #1


!llvm.module.flags = !{!0}
!llvm.ident = !{!1}

!0 = !{i32 1, !"wchar_size", i32 4}
!1 = !{!"clang version 10.0.0-4ubuntu1 "}
